target datalayout = "e-m:e-p270:32:32-p271:32:32-p272:64:64-i64:64-i128:128-f80:128-n8:16:32:64-S128"
target triple = "x86_64-pc-linux-gnu"

%struct.PaSndioHostApiRepresentation = type { %struct.PaUtilHostApiRepresentation, %struct.PaUtilStreamInterface, %struct.PaUtilStreamInterface, [16 x %struct.PaDeviceInfo], [16 x ptr], ptr }
%struct.PaUtilHostApiRepresentation = type { %struct.PaUtilPrivatePaFrontHostApiInfo, %struct.PaHostApiInfo, ptr, ptr, ptr, ptr }
%struct.PaUtilPrivatePaFrontHostApiInfo = type { i64 }
%struct.PaHostApiInfo = type { i32, i32, ptr, i32, i32, i32 }
%struct.PaUtilStreamInterface = type { ptr, ptr, ptr, ptr, ptr, ptr, ptr, ptr, ptr, ptr, ptr, ptr }
%struct.PaDeviceInfo = type { i32, ptr, i32, i32, i32, double, double, double, double, double }

@.str = private unnamed_addr constant [8 x i8] c"default\00", align 1
@.str.1 = private unnamed_addr constant [22 x i8] c"PA_SNDIO_AUDIODEVICES\00", align 1
@.str.2 = private unnamed_addr constant [2 x i8] c":\00", align 1
@.str.3 = private unnamed_addr constant [6 x i8] c"sndio\00", align 1

; Function Attrs: nounwind uwtable
define internal void @InitDeviceInfo(ptr noundef %0, i32 noundef %1, ptr noundef %2) #0 {
  %4 = alloca ptr, align 8
  %5 = alloca i32, align 4
  %6 = alloca ptr, align 8
  store ptr %0, ptr %4, align 8
  store i32 %1, ptr %5, align 4
  store ptr %2, ptr %6, align 8
  %7 = load ptr, ptr %4, align 8
  %8 = getelementptr inbounds nuw %struct.PaDeviceInfo, ptr %7, i32 0, i32 0
  store i32 2, ptr %8, align 8
  %9 = load ptr, ptr %6, align 8
  %10 = load ptr, ptr %4, align 8
  %11 = getelementptr inbounds nuw %struct.PaDeviceInfo, ptr %10, i32 0, i32 1
  store ptr %9, ptr %11, align 8
  %12 = load i32, ptr %5, align 4
  %13 = load ptr, ptr %4, align 8
  %14 = getelementptr inbounds nuw %struct.PaDeviceInfo, ptr %13, i32 0, i32 2
  store i32 %12, ptr %14, align 8
  %15 = load ptr, ptr %4, align 8
  %16 = getelementptr inbounds nuw %struct.PaDeviceInfo, ptr %15, i32 0, i32 3
  store i32 128, ptr %16, align 4
  %17 = load ptr, ptr %4, align 8
  %18 = getelementptr inbounds nuw %struct.PaDeviceInfo, ptr %17, i32 0, i32 4
  store i32 128, ptr %18, align 8
  %19 = load ptr, ptr %4, align 8
  %20 = getelementptr inbounds nuw %struct.PaDeviceInfo, ptr %19, i32 0, i32 5
  store double 1.000000e-02, ptr %20, align 8
  %21 = load ptr, ptr %4, align 8
  %22 = getelementptr inbounds nuw %struct.PaDeviceInfo, ptr %21, i32 0, i32 6
  store double 1.000000e-02, ptr %22, align 8
  %23 = load ptr, ptr %4, align 8
  %24 = getelementptr inbounds nuw %struct.PaDeviceInfo, ptr %23, i32 0, i32 7
  store double 5.000000e-01, ptr %24, align 8
  %25 = load ptr, ptr %4, align 8
  %26 = getelementptr inbounds nuw %struct.PaDeviceInfo, ptr %25, i32 0, i32 8
  store double 5.000000e-01, ptr %26, align 8
  %27 = load ptr, ptr %4, align 8
  %28 = getelementptr inbounds nuw %struct.PaDeviceInfo, ptr %27, i32 0, i32 9
  store double 4.800000e+04, ptr %28, align 8
  ret void
}

; Function Attrs: nounwind uwtable
define i32 @PaSndio_Initialize(ptr noundef %0, i32 noundef %1) #0 {
  %3 = alloca i32, align 4
  %4 = alloca ptr, align 8
  %5 = alloca i32, align 4
  %6 = alloca ptr, align 8
  %7 = alloca ptr, align 8
  %8 = alloca ptr, align 8
  %9 = alloca ptr, align 8
  %10 = alloca i64, align 8
  store ptr %0, ptr %4, align 8
  store i32 %1, ptr %5, align 4
  %11 = load ptr, ptr %4, align 8
  store ptr null, ptr %11, align 8
  %12 = call ptr @PaUtil_AllocateZeroInitializedMemory(i64 noundef 1552)
  store ptr %12, ptr %6, align 8
  %13 = load ptr, ptr %6, align 8
  %14 = icmp eq ptr %13, null
  br i1 %14, label %15, label %16

15:                                               ; preds = %2
  store i32 0, ptr %3, align 4
  br label %124

16:                                               ; preds = %2
  %17 = load ptr, ptr %6, align 8
  %18 = getelementptr inbounds nuw %struct.PaSndioHostApiRepresentation, ptr %17, i32 0, i32 3
  %19 = getelementptr inbounds [16 x %struct.PaDeviceInfo], ptr %18, i64 0, i64 0
  store ptr %19, ptr %7, align 8
  %20 = load ptr, ptr %7, align 8
  %21 = load i32, ptr %5, align 4
  call void @InitDeviceInfo(ptr noundef %20, i32 noundef %21, ptr noundef @.str)
  %22 = load ptr, ptr %7, align 8
  %23 = load ptr, ptr %6, align 8
  %24 = getelementptr inbounds nuw %struct.PaSndioHostApiRepresentation, ptr %23, i32 0, i32 4
  %25 = getelementptr inbounds [16 x ptr], ptr %24, i64 0, i64 0
  store ptr %22, ptr %25, align 8
  store i64 1, ptr %10, align 8
  %26 = load ptr, ptr %6, align 8
  %27 = getelementptr inbounds nuw %struct.PaSndioHostApiRepresentation, ptr %26, i32 0, i32 5
  store ptr null, ptr %27, align 8
  %28 = call ptr @getenv(ptr noundef @.str.1) #8
  store ptr %28, ptr %8, align 8
  %29 = load ptr, ptr %8, align 8
  %30 = icmp ne ptr %29, null
  br i1 %30, label %31, label %75

31:                                               ; preds = %16
  %32 = load ptr, ptr %8, align 8
  %33 = call noalias ptr @strdup(ptr noundef %32) #8
  %34 = load ptr, ptr %6, align 8
  %35 = getelementptr inbounds nuw %struct.PaSndioHostApiRepresentation, ptr %34, i32 0, i32 5
  store ptr %33, ptr %35, align 8
  %36 = load ptr, ptr %6, align 8
  %37 = getelementptr inbounds nuw %struct.PaSndioHostApiRepresentation, ptr %36, i32 0, i32 5
  %38 = load ptr, ptr %37, align 8
  %39 = icmp eq ptr %38, null
  br i1 %39, label %40, label %41

40:                                               ; preds = %31
  store i32 0, ptr %3, align 4
  br label %124

41:                                               ; preds = %31
  %42 = load ptr, ptr %6, align 8
  %43 = getelementptr inbounds nuw %struct.PaSndioHostApiRepresentation, ptr %42, i32 0, i32 5
  %44 = load ptr, ptr %43, align 8
  store ptr %44, ptr %8, align 8
  br label %45

45:                                               ; preds = %59, %58, %41
  %46 = call ptr @strsep(ptr noundef %8, ptr noundef @.str.2) #8
  store ptr %46, ptr %9, align 8
  %47 = icmp ne ptr %46, null
  br i1 %47, label %48, label %51

48:                                               ; preds = %45
  %49 = load i64, ptr %10, align 8
  %50 = icmp ult i64 %49, 16
  br label %51

51:                                               ; preds = %48, %45
  %52 = phi i1 [ false, %45 ], [ %50, %48 ]
  br i1 %52, label %53, label %74

53:                                               ; preds = %51
  %54 = load ptr, ptr %9, align 8
  %55 = load i8, ptr %54, align 1
  %56 = sext i8 %55 to i32
  %57 = icmp eq i32 %56, 0
  br i1 %57, label %58, label %59

58:                                               ; preds = %53
  br label %45, !llvm.loop !4

59:                                               ; preds = %53
  %60 = load ptr, ptr %6, align 8
  %61 = getelementptr inbounds nuw %struct.PaSndioHostApiRepresentation, ptr %60, i32 0, i32 3
  %62 = load i64, ptr %10, align 8
  %63 = getelementptr inbounds [16 x %struct.PaDeviceInfo], ptr %61, i64 0, i64 %62
  store ptr %63, ptr %7, align 8
  %64 = load ptr, ptr %7, align 8
  %65 = load i32, ptr %5, align 4
  %66 = load ptr, ptr %9, align 8
  call void @InitDeviceInfo(ptr noundef %64, i32 noundef %65, ptr noundef %66)
  %67 = load ptr, ptr %7, align 8
  %68 = load ptr, ptr %6, align 8
  %69 = getelementptr inbounds nuw %struct.PaSndioHostApiRepresentation, ptr %68, i32 0, i32 4
  %70 = load i64, ptr %10, align 8
  %71 = getelementptr inbounds [16 x ptr], ptr %69, i64 0, i64 %70
  store ptr %67, ptr %71, align 8
  %72 = load i64, ptr %10, align 8
  %73 = add i64 %72, 1
  store i64 %73, ptr %10, align 8
  br label %45, !llvm.loop !4

74:                                               ; preds = %51
  br label %75

75:                                               ; preds = %74, %16
  %76 = load ptr, ptr %6, align 8
  %77 = getelementptr inbounds nuw %struct.PaSndioHostApiRepresentation, ptr %76, i32 0, i32 0
  %78 = load ptr, ptr %4, align 8
  store ptr %77, ptr %78, align 8
  %79 = load ptr, ptr %4, align 8
  %80 = load ptr, ptr %79, align 8
  %81 = getelementptr inbounds nuw %struct.PaUtilHostApiRepresentation, ptr %80, i32 0, i32 1
  %82 = getelementptr inbounds nuw %struct.PaHostApiInfo, ptr %81, i32 0, i32 0
  store i32 1, ptr %82, align 8
  %83 = load ptr, ptr %4, align 8
  %84 = load ptr, ptr %83, align 8
  %85 = getelementptr inbounds nuw %struct.PaUtilHostApiRepresentation, ptr %84, i32 0, i32 1
  %86 = getelementptr inbounds nuw %struct.PaHostApiInfo, ptr %85, i32 0, i32 1
  store i32 17, ptr %86, align 4
  %87 = load ptr, ptr %4, align 8
  %88 = load ptr, ptr %87, align 8
  %89 = getelementptr inbounds nuw %struct.PaUtilHostApiRepresentation, ptr %88, i32 0, i32 1
  %90 = getelementptr inbounds nuw %struct.PaHostApiInfo, ptr %89, i32 0, i32 2
  store ptr @.str.3, ptr %90, align 8
  %91 = load i64, ptr %10, align 8
  %92 = trunc i64 %91 to i32
  %93 = load ptr, ptr %4, align 8
  %94 = load ptr, ptr %93, align 8
  %95 = getelementptr inbounds nuw %struct.PaUtilHostApiRepresentation, ptr %94, i32 0, i32 1
  %96 = getelementptr inbounds nuw %struct.PaHostApiInfo, ptr %95, i32 0, i32 3
  store i32 %92, ptr %96, align 8
  %97 = load ptr, ptr %4, align 8
  %98 = load ptr, ptr %97, align 8
  %99 = getelementptr inbounds nuw %struct.PaUtilHostApiRepresentation, ptr %98, i32 0, i32 1
  %100 = getelementptr inbounds nuw %struct.PaHostApiInfo, ptr %99, i32 0, i32 4
  store i32 0, ptr %100, align 4
  %101 = load ptr, ptr %4, align 8
  %102 = load ptr, ptr %101, align 8
  %103 = getelementptr inbounds nuw %struct.PaUtilHostApiRepresentation, ptr %102, i32 0, i32 1
  %104 = getelementptr inbounds nuw %struct.PaHostApiInfo, ptr %103, i32 0, i32 5
  store i32 0, ptr %104, align 8
  %105 = load ptr, ptr %6, align 8
  %106 = getelementptr inbounds nuw %struct.PaSndioHostApiRepresentation, ptr %105, i32 0, i32 4
  %107 = getelementptr inbounds [16 x ptr], ptr %106, i64 0, i64 0
  %108 = load ptr, ptr %4, align 8
  %109 = load ptr, ptr %108, align 8
  %110 = getelementptr inbounds nuw %struct.PaUtilHostApiRepresentation, ptr %109, i32 0, i32 2
  store ptr %107, ptr %110, align 8
  %111 = load ptr, ptr %4, align 8
  %112 = load ptr, ptr %111, align 8
  %113 = getelementptr inbounds nuw %struct.PaUtilHostApiRepresentation, ptr %112, i32 0, i32 3
  store ptr @Terminate, ptr %113, align 8
  %114 = load ptr, ptr %4, align 8
  %115 = load ptr, ptr %114, align 8
  %116 = getelementptr inbounds nuw %struct.PaUtilHostApiRepresentation, ptr %115, i32 0, i32 4
  store ptr @OpenStream, ptr %116, align 8
  %117 = load ptr, ptr %4, align 8
  %118 = load ptr, ptr %117, align 8
  %119 = getelementptr inbounds nuw %struct.PaUtilHostApiRepresentation, ptr %118, i32 0, i32 5
  store ptr @IsFormatSupported, ptr %119, align 8
  %120 = load ptr, ptr %6, align 8
  %121 = getelementptr inbounds nuw %struct.PaSndioHostApiRepresentation, ptr %120, i32 0, i32 2
  call void @PaUtil_InitializeStreamInterface(ptr noundef %121, ptr noundef @CloseStream, ptr noundef @StartStream, ptr noundef @StopStream, ptr noundef @AbortStream, ptr noundef @IsStreamStopped, ptr noundef @IsStreamActive, ptr noundef @GetStreamTime, ptr noundef @PaUtil_DummyGetCpuLoad, ptr noundef @BlockingReadStream, ptr noundef @BlockingWriteStream, ptr noundef @BlockingGetStreamReadAvailable, ptr noundef @BlockingGetStreamWriteAvailable)
  %122 = load ptr, ptr %6, align 8
  %123 = getelementptr inbounds nuw %struct.PaSndioHostApiRepresentation, ptr %122, i32 0, i32 1
  call void @PaUtil_InitializeStreamInterface(ptr noundef %123, ptr noundef @CloseStream, ptr noundef @StartStream, ptr noundef @StopStream, ptr noundef @AbortStream, ptr noundef @IsStreamStopped, ptr noundef @IsStreamActive, ptr noundef @GetStreamTime, ptr noundef @PaUtil_DummyGetCpuLoad, ptr noundef @PaUtil_DummyRead, ptr noundef @PaUtil_DummyWrite, ptr noundef @PaUtil_DummyGetReadAvailable, ptr noundef @PaUtil_DummyGetWriteAvailable)
  store i32 0, ptr %3, align 4
  br label %124

124:                                              ; preds = %75, %40, %15
  %125 = load i32, ptr %3, align 4
  ret i32 %125
}