; Function Attrs: nounwind uwtable
define noundef i32 @PaSndio_Initialize(ptr nocapture noundef %0, i32 noundef %1) local_unnamed_addr #0 {
  %3 = alloca ptr, align 8
  store ptr null, ptr %0, align 8
  %4 = tail call ptr @PaUtil_AllocateZeroInitializedMemory(i64 noundef 1552) #16
  %5 = icmp eq ptr %4, null
  br i1 %5, label %64, label %6

6:                                                ; preds = %2
  %7 = getelementptr inbounds nuw i8, ptr %4, i64 264
  store i32 2, ptr %7, align 8
  %8 = getelementptr inbounds i8, ptr %4, i64 272
  store ptr @.str, ptr %8, align 8
  %9 = getelementptr inbounds i8, ptr %4, i64 280
  store i32 %1, ptr %9, align 8
  %10 = getelementptr inbounds i8, ptr %4, i64 284
  store i32 128, ptr %10, align 4
  %11 = getelementptr inbounds i8, ptr %4, i64 288
  store i32 128, ptr %11, align 8
  %12 = getelementptr inbounds i8, ptr %4, i64 296
  store double 1.000000e-02, ptr %12, align 8
  %13 = getelementptr inbounds i8, ptr %4, i64 304
  store double 1.000000e-02, ptr %13, align 8
  %14 = getelementptr inbounds i8, ptr %4, i64 312
  store double 5.000000e-01, ptr %14, align 8
  %15 = getelementptr inbounds i8, ptr %4, i64 320
  store double 5.000000e-01, ptr %15, align 8
  %16 = getelementptr inbounds i8, ptr %4, i64 328
  store double 4.800000e+04, ptr %16, align 8
  %17 = getelementptr inbounds nuw i8, ptr %4, i64 1416
  store ptr %7, ptr %17, align 8
  %18 = getelementptr inbounds nuw i8, ptr %4, i64 1544
  store ptr null, ptr %18, align 8
  %19 = tail call ptr @getenv(ptr noundef nonnull @.str.1) #16
  store ptr %19, ptr %3, align 8
  %.not = icmp eq ptr %19, null
  br i1 %.not, label %.loopexit, label %20

20:                                               ; preds = %6
  %21 = tail call noalias ptr @strdup(ptr noundef nonnull %19) #16
  store ptr %21, ptr %18, align 8
  %22 = icmp eq ptr %21, null
  br i1 %22, label %64, label %23

23:                                               ; preds = %20
  store ptr %21, ptr %3, align 8
  br label %.outer.split

.outer.split.us:                                  ; preds = %.outer
  %24 = call ptr @strsep(ptr noundef nonnull %3, ptr noundef nonnull @.str.2) #16
  br label %.loopexit

.outer.split:                                     ; preds = %23, %.outer
  %.1.ph46 = phi i64 [ 1, %23 ], [ %41, %.outer ]
  br label %25

25:                                               ; preds = %.outer.split, %27
  %26 = call ptr @strsep(ptr noundef nonnull %3, ptr noundef nonnull @.str.2) #16
  %.not47 = icmp eq ptr %26, null
  br i1 %.not47, label %.loopexit.loopexit, label %27

27:                                               ; preds = %25
  %28 = load i8, ptr %26, align 1
  %29 = icmp eq i8 %28, 0
  br i1 %29, label %25, label %.outer, !llvm.loop !4

.outer:                                           ; preds = %27
  %30 = getelementptr inbounds [16 x %struct.PaDeviceInfo], ptr %7, i64 0, i64 %.1.ph46
  store i32 2, ptr %30, align 8
  %31 = getelementptr inbounds nuw i8, ptr %30, i64 8
  store ptr %26, ptr %31, align 8
  %32 = getelementptr inbounds nuw i8, ptr %30, i64 16
  store i32 %1, ptr %32, align 8
  %33 = getelementptr inbounds nuw i8, ptr %30, i64 20
  store i32 128, ptr %33, align 4
  %34 = getelementptr inbounds nuw i8, ptr %30, i64 24
  store i32 128, ptr %34, align 8
  %35 = getelementptr inbounds nuw i8, ptr %30, i64 32
  store double 1.000000e-02, ptr %35, align 8
  %36 = getelementptr inbounds nuw i8, ptr %30, i64 40
  store double 1.000000e-02, ptr %36, align 8
  %37 = getelementptr inbounds nuw i8, ptr %30, i64 48
  store double 5.000000e-01, ptr %37, align 8
  %38 = getelementptr inbounds nuw i8, ptr %30, i64 56
  store double 5.000000e-01, ptr %38, align 8
  %39 = getelementptr inbounds nuw i8, ptr %30, i64 64
  store double 4.800000e+04, ptr %39, align 8
  %40 = getelementptr inbounds [16 x ptr], ptr %17, i64 0, i64 %.1.ph46
  store ptr %30, ptr %40, align 8
  %41 = add nuw nsw i64 %.1.ph46, 1
  %exitcond.not = icmp eq i64 %41, 16
  br i1 %exitcond.not, label %.outer.split.us, label %.outer.split, !llvm.loop !4

.loopexit.loopexit:                               ; preds = %25
  %42 = trunc i64 %.1.ph46 to i32
  br label %.loopexit

.loopexit:                                        ; preds = %.loopexit.loopexit, %.outer.split.us, %6
  %.0 = phi i32 [ 1, %6 ], [ 16, %.outer.split.us ], [ %42, %.loopexit.loopexit ]
  store ptr %4, ptr %0, align 8
  %43 = getelementptr inbounds nuw i8, ptr %4, i64 8
  store i32 1, ptr %43, align 8
  %44 = load ptr, ptr %0, align 8
  %45 = getelementptr inbounds i8, ptr %44, i64 12
  store i32 17, ptr %45, align 4
  %46 = load ptr, ptr %0, align 8
  %47 = getelementptr inbounds i8, ptr %46, i64 16
  store ptr @.str.3, ptr %47, align 8
  %48 = load ptr, ptr %0, align 8
  %49 = getelementptr inbounds i8, ptr %48, i64 24
  store i32 %.0, ptr %49, align 8
  %50 = load ptr, ptr %0, align 8
  %51 = getelementptr inbounds i8, ptr %50, i64 28
  store i32 0, ptr %51, align 4
  %52 = load ptr, ptr %0, align 8
  %53 = getelementptr inbounds i8, ptr %52, i64 32
  store i32 0, ptr %53, align 8
  %54 = load ptr, ptr %0, align 8
  %55 = getelementptr inbounds nuw i8, ptr %54, i64 40
  store ptr %17, ptr %55, align 8
  %56 = load ptr, ptr %0, align 8
  %57 = getelementptr inbounds nuw i8, ptr %56, i64 48
  store ptr @Terminate, ptr %57, align 8
  %58 = load ptr, ptr %0, align 8
  %59 = getelementptr inbounds nuw i8, ptr %58, i64 56
  store ptr @OpenStream, ptr %59, align 8
  %60 = load ptr, ptr %0, align 8
  %61 = getelementptr inbounds nuw i8, ptr %60, i64 64
  store ptr @IsFormatSupported, ptr %61, align 8
  %62 = getelementptr inbounds nuw i8, ptr %4, i64 168
  call void @PaUtil_InitializeStreamInterface(ptr noundef nonnull %62, ptr noundef nonnull @CloseStream, ptr noundef nonnull @StartStream, ptr noundef nonnull @StopStream, ptr noundef nonnull @AbortStream, ptr noundef nonnull @IsStreamStopped, ptr noundef nonnull @IsStreamActive, ptr noundef nonnull @GetStreamTime, ptr noundef nonnull @PaUtil_DummyGetCpuLoad, ptr noundef nonnull @BlockingReadStream, ptr noundef nonnull @BlockingWriteStream, ptr noundef nonnull @BlockingGetStreamReadAvailable, ptr noundef nonnull @BlockingGetStreamWriteAvailable) #16
  %63 = getelementptr inbounds nuw i8, ptr %4, i64 72
  call void @PaUtil_InitializeStreamInterface(ptr noundef nonnull %63, ptr noundef nonnull @CloseStream, ptr noundef nonnull @StartStream, ptr noundef nonnull @StopStream, ptr noundef nonnull @AbortStream, ptr noundef nonnull @IsStreamStopped, ptr noundef nonnull @IsStreamActive, ptr noundef nonnull @GetStreamTime, ptr noundef nonnull @PaUtil_DummyGetCpuLoad, ptr noundef nonnull @PaUtil_DummyRead, ptr noundef nonnull @PaUtil_DummyWrite, ptr noundef nonnull @PaUtil_DummyGetReadAvailable, ptr noundef nonnull @PaUtil_DummyGetWriteAvailable) #16
  br label %64

64:                                               ; preds = %20, %2, %.loopexit
  ret i32 0
}